target datalayout = "e-m:e-p270:32:32-p271:32:32-p272:64:64-i64:64-i128:128-f80:128-n8:16:32:64-S128"
target triple = "x86_64-pc-linux-gnu"

%class.ciEnv = type <{ ptr, %class.Arena, ptr, ptr, ptr, ptr, %class.CHeapStringHolder, i8, [3 x i8], i32, i8, [3 x i8], i32, ptr, ptr, ptr, ptr, i32, [4 x i8], i64, i8, i8, i8, i8, i8, i8, i8, i8, ptr, ptr, ptr, ptr, ptr, ptr, ptr, ptr, ptr, [1025 x i8], [7 x i8] }>
%class.Arena = type { i8, i8, i64, ptr, ptr, ptr, ptr }
%class.CHeapStringHolder = type { ptr }

; Function Attrs: mustprogress nounwind uwtable
define linkonce_odr hidden noundef ptr @_ZN5ciEnv5arenaEv(ptr noundef nonnull align 8 dereferenceable(1265) %0) #1 comdat align 2 {
  %2 = alloca ptr, align 8
  store ptr %0, ptr %2, align 8
  %3 = load ptr, ptr %2, align 8
  %4 = getelementptr inbounds %class.ciEnv, ptr %3, i32 0, i32 0
  %5 = load ptr, ptr %4, align 8
  ret ptr %5
}

; Function Attrs: mustprogress nounwind uwtable
define hidden noundef ptr @_ZN5ciEnv23get_field_by_index_implEP15ciInstanceKlassiN9Bytecodes4CodeE(ptr noundef nonnull align 8 dereferenceable(1265) %0, ptr noundef %1, i32 noundef %2, i32 noundef %3) #1 align 2 {
  %5 = alloca ptr, align 8
  %6 = alloca ptr, align 8
  %7 = alloca ptr, align 8
  %8 = alloca i32, align 4
  %9 = alloca i32, align 4
  %10 = alloca ptr, align 8
  %11 = alloca ptr, align 8
  %12 = alloca ptr, align 8
  store ptr %0, ptr %6, align 8
  store ptr %1, ptr %7, align 8
  store i32 %2, ptr %8, align 4
  store i32 %3, ptr %9, align 4
  %13 = load ptr, ptr %6, align 8
  %14 = load ptr, ptr %7, align 8
  %15 = call noundef ptr @_ZN15ciInstanceKlass11field_cacheEv(ptr noundef nonnull align 8 dereferenceable(144) %14)
  store ptr %15, ptr %10, align 8
  %16 = load ptr, ptr %10, align 8
  %17 = icmp eq ptr %16, null
  br i1 %17, label %18, label %29

18:                                               ; preds = %4
  %19 = call noundef ptr @_ZN5ciEnv5arenaEv(ptr noundef nonnull align 8 dereferenceable(1265) %13)
  %20 = call noundef ptr @_ZN8ArenaObjnwEmP5Arena(i64 noundef 80, ptr noundef %19) #9
  %21 = icmp eq ptr %20, null
  br i1 %21, label %26, label %22

22:                                               ; preds = %18
  %23 = load ptr, ptr %7, align 8
  %24 = load i32, ptr %8, align 4
  %25 = load i32, ptr %9, align 4
  call void @_ZN7ciFieldC1EP15ciInstanceKlassiN9Bytecodes4CodeE(ptr noundef nonnull align 8 dereferenceable(80) %20, ptr noundef %23, i32 noundef %24, i32 noundef %25)
  br label %26

26:                                               ; preds = %22, %18
  %27 = phi ptr [ %20, %22 ], [ null, %18 ]
  store ptr %27, ptr %11, align 8
  %28 = load ptr, ptr %11, align 8
  store ptr %28, ptr %5, align 8
  br label %50

29:                                               ; preds = %4
  %30 = load ptr, ptr %10, align 8
  %31 = load i32, ptr %8, align 4
  %32 = call noundef ptr @_ZN19ciConstantPoolCache3getEi(ptr noundef nonnull align 8 dereferenceable(16) %30, i32 noundef %31)
  store ptr %32, ptr %12, align 8
  %33 = load ptr, ptr %12, align 8
  %34 = icmp eq ptr %33, null
  br i1 %34, label %35, label %48

35:                                               ; preds = %29
  %36 = call noundef ptr @_ZN5ciEnv5arenaEv(ptr noundef nonnull align 8 dereferenceable(1265) %13)
  %37 = call noundef ptr @_ZN8ArenaObjnwEmP5Arena(i64 noundef 80, ptr noundef %36) #9
  %38 = icmp eq ptr %37, null
  br i1 %38, label %43, label %39

39:                                               ; preds = %35
  %40 = load ptr, ptr %7, align 8
  %41 = load i32, ptr %8, align 4
  %42 = load i32, ptr %9, align 4
  call void @_ZN7ciFieldC1EP15ciInstanceKlassiN9Bytecodes4CodeE(ptr noundef nonnull align 8 dereferenceable(80) %37, ptr noundef %40, i32 noundef %41, i32 noundef %42)
  br label %43

43:                                               ; preds = %39, %35
  %44 = phi ptr [ %37, %39 ], [ null, %35 ]
  store ptr %44, ptr %12, align 8
  %45 = load ptr, ptr %10, align 8
  %46 = load i32, ptr %8, align 4
  %47 = load ptr, ptr %12, align 8
  call void @_ZN19ciConstantPoolCache6insertEiPv(ptr noundef nonnull align 8 dereferenceable(16) %45, i32 noundef %46, ptr noundef %47)
  br label %48

48:                                               ; preds = %43, %29
  %49 = load ptr, ptr %12, align 8
  store ptr %49, ptr %5, align 8
  br label %50

50:                                               ; preds = %48, %26
  %51 = load ptr, ptr %5, align 8
  ret ptr %51
}