; Function Attrs: mustprogress nounwind uwtable
define hidden noundef ptr @_ZN5ciEnv23get_field_by_index_implEP15ciInstanceKlassiN9Bytecodes4CodeE(ptr nocapture noundef nonnull readonly align 8 dereferenceable(1265) %0, ptr noundef nonnull %1, i32 noundef %2, i32 noundef %3) local_unnamed_addr #0 align 2 {
  %5 = tail call noundef ptr @_ZN15ciInstanceKlass11field_cacheEv(ptr noundef nonnull align 8 dereferenceable(144) %1) #18
  %6 = icmp eq ptr %5, null
  br i1 %6, label %7, label %12

7:                                                ; preds = %4
  %8 = load ptr, ptr %0, align 8
  %9 = tail call noundef ptr @_ZN8ArenaObjnwEmP5Arena(i64 noundef 80, ptr noundef %8) #18
  %10 = icmp eq ptr %9, null
  br i1 %10, label %21, label %11

11:                                               ; preds = %7
  tail call void @_ZN7ciFieldC1EP15ciInstanceKlassiN9Bytecodes4CodeE(ptr noundef nonnull align 8 dereferenceable(80) %9, ptr noundef nonnull %1, i32 noundef %2, i32 noundef %3) #18
  br label %21

12:                                               ; preds = %4
  %13 = tail call noundef ptr @_ZN19ciConstantPoolCache3getEi(ptr noundef nonnull align 8 dereferenceable(16) %5, i32 noundef %2) #18
  %14 = icmp eq ptr %13, null
  br i1 %14, label %15, label %21

15:                                               ; preds = %12
  %16 = load ptr, ptr %0, align 8
  %17 = tail call noundef ptr @_ZN8ArenaObjnwEmP5Arena(i64 noundef 80, ptr noundef %16) #18
  %18 = icmp eq ptr %17, null
  br i1 %18, label %20, label %19

19:                                               ; preds = %15
  tail call void @_ZN7ciFieldC1EP15ciInstanceKlassiN9Bytecodes4CodeE(ptr noundef nonnull align 8 dereferenceable(80) %17, ptr noundef nonnull %1, i32 noundef %2, i32 noundef %3) #18
  br label %20

20:                                               ; preds = %19, %15
  tail call void @_ZN19ciConstantPoolCache6insertEiPv(ptr noundef nonnull align 8 dereferenceable(16) %5, i32 noundef %2, ptr noundef %17) #18
  br label %21

21:                                               ; preds = %12, %20, %7, %11
  %.017 = phi ptr [ %9, %11 ], [ null, %7 ], [ %17, %20 ], [ %13, %12 ]
  ret ptr %.017
}